target datalayout = "e-m:e-p270:32:32-p271:32:32-p272:64:64-i64:64-i128:128-f80:128-n8:16:32:64-S128"
target triple = "x86_64-pc-linux-gnu"

%"class.clang::ento::SubRegion" = type { %"class.clang::ento::MemRegion", ptr }
%"class.clang::ento::MemRegion" = type { ptr, %"class.llvm::FoldingSetBase::Node", i32, [4 x i8], %"class.std::optional" }
%"class.llvm::FoldingSetBase::Node" = type { ptr }
%"class.std::optional" = type { %"struct.std::_Optional_base" }
%"struct.std::_Optional_base" = type { %"struct.std::_Optional_payload" }
%"struct.std::_Optional_payload" = type { %"struct.std::_Optional_payload_base.base", [7 x i8] }
%"struct.std::_Optional_payload_base.base" = type <{ %"union.std::_Optional_payload_base<clang::ento::RegionOffset>::_Storage", i8 }>
%"union.std::_Optional_payload_base<clang::ento::RegionOffset>::_Storage" = type { %"class.clang::ento::RegionOffset" }
%"class.clang::ento::RegionOffset" = type { ptr, i64 }
%"class.clang::ento::TypedRegion" = type { %"class.clang::ento::SubRegion" }
%"class.clang::ento::BlockDataRegion" = type { %"class.clang::ento::TypedRegion", ptr, ptr, i32, ptr, ptr }
%"class.clang::ento::BlockDataRegion::referenced_vars_iterator" = type { ptr, ptr }
%"class.clang::BumpVector" = type { ptr, ptr, ptr }

; Function Attrs: mustprogress nounwind uwtable
define linkonce_odr hidden noundef ptr @_ZN5clang10BumpVectorIPKNS_4ento9MemRegionEE5beginEv(ptr noundef nonnull align 8 dereferenceable(24) %0) #0 comdat align 2 {
  %2 = alloca ptr, align 8
  store ptr %0, ptr %2, align 8
  %3 = load ptr, ptr %2, align 8
  %4 = getelementptr inbounds nuw %"class.clang::BumpVector", ptr %3, i32 0, i32 0
  %5 = load ptr, ptr %4, align 8
  ret ptr %5
}

; Function Attrs: mustprogress nounwind uwtable
define linkonce_odr hidden void @_ZN5clang4ento15BlockDataRegion24referenced_vars_iteratorC2EPKPKNS0_9MemRegionES7_(ptr noundef nonnull align 8 dereferenceable(16) %0, ptr noundef %1, ptr noundef %2) unnamed_addr #0 comdat align 2 {
  %4 = alloca ptr, align 8
  %5 = alloca ptr, align 8
  %6 = alloca ptr, align 8
  store ptr %0, ptr %4, align 8
  store ptr %1, ptr %5, align 8
  store ptr %2, ptr %6, align 8
  %7 = load ptr, ptr %4, align 8
  %8 = getelementptr inbounds nuw %"class.clang::ento::BlockDataRegion::referenced_vars_iterator", ptr %7, i32 0, i32 0
  %9 = load ptr, ptr %5, align 8
  store ptr %9, ptr %8, align 8
  %10 = getelementptr inbounds nuw %"class.clang::ento::BlockDataRegion::referenced_vars_iterator", ptr %7, i32 0, i32 1
  %11 = load ptr, ptr %6, align 8
  store ptr %11, ptr %10, align 8
  ret void
}

; Function Attrs: mustprogress nounwind uwtable
define dso_local { ptr, ptr } @_ZNK5clang4ento15BlockDataRegion21referenced_vars_beginEv(ptr noundef nonnull align 8 dereferenceable(96) %0) #0 align 2 {
  %2 = alloca %"class.clang::ento::BlockDataRegion::referenced_vars_iterator", align 8
  %3 = alloca ptr, align 8
  %4 = alloca ptr, align 8
  %5 = alloca ptr, align 8
  store ptr %0, ptr %3, align 8
  %6 = load ptr, ptr %3, align 8
  call void @_ZN5clang4ento15BlockDataRegion28LazyInitializeReferencedVarsEv(ptr noundef nonnull align 8 dereferenceable(96) %6)
  %7 = getelementptr inbounds nuw %"class.clang::ento::BlockDataRegion", ptr %6, i32 0, i32 4
  %8 = load ptr, ptr %7, align 8
  store ptr %8, ptr %4, align 8
  %9 = load ptr, ptr %4, align 8
  %10 = icmp eq ptr %9, inttoptr (i64 1 to ptr)
  br i1 %10, label %11, label %12

11:                                               ; preds = %1
  call void @_ZN5clang4ento15BlockDataRegion24referenced_vars_iteratorC2EPKPKNS0_9MemRegionES7_(ptr noundef nonnull align 8 dereferenceable(16) %2, ptr noundef null, ptr noundef null)
  br label %19

12:                                               ; preds = %1
  %13 = getelementptr inbounds nuw %"class.clang::ento::BlockDataRegion", ptr %6, i32 0, i32 5
  %14 = load ptr, ptr %13, align 8
  store ptr %14, ptr %5, align 8
  %15 = load ptr, ptr %4, align 8
  %16 = call noundef ptr @_ZN5clang10BumpVectorIPKNS_4ento9MemRegionEE5beginEv(ptr noundef nonnull align 8 dereferenceable(24) %15)
  %17 = load ptr, ptr %5, align 8
  %18 = call noundef ptr @_ZN5clang10BumpVectorIPKNS_4ento9MemRegionEE5beginEv(ptr noundef nonnull align 8 dereferenceable(24) %17)
  call void @_ZN5clang4ento15BlockDataRegion24referenced_vars_iteratorC2EPKPKNS0_9MemRegionES7_(ptr noundef nonnull align 8 dereferenceable(16) %2, ptr noundef %16, ptr noundef %18)
  br label %19

19:                                               ; preds = %12, %11
  %20 = load { ptr, ptr }, ptr %2, align 8
  ret { ptr, ptr } %20
}