; Function Attrs: mustprogress nounwind uwtable
define dso_local { ptr, ptr } @_ZNK5clang4ento15BlockDataRegion21referenced_vars_beginEv(ptr noundef nonnull align 8 dereferenceable(96) %0) local_unnamed_addr #3 align 2 {
  tail call void @_ZN5clang4ento15BlockDataRegion28LazyInitializeReferencedVarsEv(ptr noundef nonnull align 8 dereferenceable(96) %0)
  %2 = getelementptr inbounds nuw i8, ptr %0, i64 80
  %3 = load ptr, ptr %2, align 8
  %4 = icmp eq ptr %3, inttoptr (i64 1 to ptr)
  br i1 %4, label %10, label %5

5:                                                ; preds = %1
  %6 = getelementptr inbounds nuw i8, ptr %0, i64 88
  %7 = load ptr, ptr %6, align 8
  %8 = load ptr, ptr %3, align 8
  %9 = load ptr, ptr %7, align 8
  br label %10

10:                                               ; preds = %1, %5
  %.sroa.3.0 = phi ptr [ %9, %5 ], [ null, %1 ]
  %.sroa.0.0 = phi ptr [ %8, %5 ], [ null, %1 ]
  %.fca.0.insert = insertvalue { ptr, ptr } poison, ptr %.sroa.0.0, 0
  %.fca.1.insert = insertvalue { ptr, ptr } %.fca.0.insert, ptr %.sroa.3.0, 1
  ret { ptr, ptr } %.fca.1.insert
}